target datalayout = "e-m:e-p270:32:32-p271:32:32-p272:64:64-i64:64-i128:128-f80:128-n8:16:32:64-S128"
target triple = "x86_64-pc-linux-gnu"

; Function Attrs: nounwind uwtable
define void @PGTYPESdate_mdyjul(ptr noundef %0, ptr noundef %1) #0 {
  %3 = alloca ptr, align 8
  %4 = alloca ptr, align 8
  store ptr %0, ptr %3, align 8
  store ptr %1, ptr %4, align 8
  %5 = load ptr, ptr %3, align 8
  %6 = getelementptr inbounds i32, ptr %5, i64 2
  %7 = load i32, ptr %6, align 4
  %8 = load ptr, ptr %3, align 8
  %9 = getelementptr inbounds i32, ptr %8, i64 0
  %10 = load i32, ptr %9, align 4
  %11 = load ptr, ptr %3, align 8
  %12 = getelementptr inbounds i32, ptr %11, i64 1
  %13 = load i32, ptr %12, align 4
  %14 = call i32 @date2j(i32 noundef %7, i32 noundef %10, i32 noundef %13)
  %15 = call i32 @date2j(i32 noundef 2000, i32 noundef 1, i32 noundef 1)
  %16 = sub i32 %14, %15
  %17 = sext i32 %16 to i64
  %18 = load ptr, ptr %4, align 8
  store i64 %17, ptr %18, align 8
  ret void
}