; Function Attrs: nounwind uwtable
define void @PGTYPESdate_mdyjul(ptr noundef readonly captures(none) %0, ptr noundef writeonly captures(none) initializes((0, 8)) %1) local_unnamed_addr #0 {
  %3 = getelementptr inbounds nuw i8, ptr %0, i64 8
  %4 = load i32, ptr %3, align 4
  %5 = load i32, ptr %0, align 4
  %6 = getelementptr inbounds nuw i8, ptr %0, i64 4
  %7 = load i32, ptr %6, align 4
  %8 = tail call i32 @date2j(i32 noundef %4, i32 noundef %5, i32 noundef %7) #12
  %9 = tail call i32 @date2j(i32 noundef 2000, i32 noundef 1, i32 noundef 1) #12
  %10 = sub i32 %8, %9
  %11 = sext i32 %10 to i64
  store i64 %11, ptr %1, align 8
  ret void
}